(dp0
S'PRP$'
p1
F1.0311247238814192
sS'VBG'
p2
F1.1778073738973458
sS'FW'
p3
F0.9800889534039674
sS'VBN'
p4
F1.1113312466773573
sS','
p5
F1.2235527267370403
sS'VBP'
p6
F0.9389972521463575
sS'WDT'
p7
F0.8579441830394422
sS'JJ'
p8
F1.5802468291158276
sS'WP'
p9
F1.168993495423059
sS'VBZ'
p10
F0.5283466685028343
sS'DT'
p11
F1.5961661246869365
sS'RP'
p12
F0.6873797349885419
sS'NN'
p13
F1.6501537308992134
sS'VBD'
p14
F0.699786634468317
sS'POS'
p15
F1.2535720138289517
sS'.'
p16
F0.9995557290126929
sS'TO'
p17
F0.9643643481204717
sS'PRP'
p18
F0.4076543628023546
sS'RB'
p19
F0.7524285976702817
sS'NNS'
p20
F1.0316925034339564
sS'LS'
p21
F0.7622683546658185
sS'VB'
p22
F0.5612736267864823
sS'WRB'
p23
F1.4075413785232784
sS'CC'
p24
F1.3185081262903602
sS'PDT'
p25
F1.2873931533424114
sS'RBS'
p26
F0.9673842846117757
sS'RBR'
p27
F0.6435079888274814
sS'CD'
p28
F0.7263516749853084
sS'EX'
p29
F1.118094566241792
sS'IN'
p30
F1.2127633518645458
sS'WP$'
p31
F0.6009370127015603
sS'MD'
p32
F0.9208055761023862
sS'NNPS'
p33
F1.1026957535843263
sS'JJS'
p34
F0.9863609065864174
sS'JJR'
p35
F0.9429995300602828
sS'UH'
p36
F0.6703937882238032
sS'NNP'
p37
F0.7715843499680057
s.