(dp0
S'PRP$'
p1
F1.5981532974647104
sS'VBG'
p2
F0.7141624814304529
sS'FW'
p3
F1.1461549897726402
sS'VBN'
p4
F0.5752222679399024
sS','
p5
F0.6416256198096204
sS'VBP'
p6
F1.197397148326837
sS'WDT'
p7
F1.0283282111218532
sS'JJ'
p8
F0.7783788100337957
sS'WP'
p9
F0.7165535702383484
sS'VBZ'
p10
F0.530256033118231
sS'DT'
p11
F1.2680438905379685
sS'RP'
p12
F2.216121275331188
sS'NN'
p13
F3.6256356671984946
sS'VBD'
p14
F1.265911915886743
sS'POS'
p15
F0.8812997010067697
sS'.'
p16
F1.0653183837822386
sS'TO'
p17
F0.9225747449086654
sS'PRP'
p18
F0.8611032863453508
sS'RB'
p19
F1.1862274165452544
sS'NNS'
p20
F1.6071934648821484
sS'LS'
p21
F0.829053945767044
sS'VB'
p22
F0.9178648351489392
sS'WRB'
p23
F1.1488829097273923
sS'CC'
p24
F0.8897344521217434
sS'PDT'
p25
F0.7105009052775796
sS'RBS'
p26
F0.7125189116257228
sS'RBR'
p27
F1.4446507642012536
sS'CD'
p28
F0.8625752122029713
sS'EX'
p29
F0.8088144836426503
sS'IN'
p30
F1.7655283813314155
sS'WP$'
p31
F0.9342926549566847
sS'MD'
p32
F0.7786145244995613
sS'NNPS'
p33
F1.1518629638528246
sS'JJS'
p34
F0.8541401443285427
sS'JJR'
p35
F0.7376083107424857
sS'UH'
p36
F1.0233555057793513
sS'NNP'
p37
F0.8558588625186481
s.